(S'386c65e11b02d53ae0a0527aefb13637'
p1
(ihappydoclib.parseinfo.moduleinfo
ModuleInfo
p2
(dp3
S'_namespaces'
p4
((dp5
(dp6
tp7
sS'_import_info'
p8
(ihappydoclib.parseinfo.imports
ImportInfo
p9
(dp10
S'_named_imports'
p11
(dp12
sS'_straight_imports'
p13
(lp14
sbsS'_filename'
p15
S'box/setup_box.py'
p16
sS'_docstring'
p17
S''
sS'_name'
p18
S'setup_box'
p19
sS'_parent'
p20
NsS'_comment_info'
p21
(dp22
sS'_configuration_values'
p23
(dp24
S'include_comments'
p25
I1
sS'cacheFilePrefix'
p26
S'.happydoc.'
p27
sS'useCache'
p28
I1
sS'docStringFormat'
p29
S'StructuredText'
p30
ssS'_class_info'
p31
g5
sS'_function_info'
p32
g6
sS'_comments'
p33
S''
sbt.