(S'a7ea1d1e07232441522fa19d8d9a867f'
p1
(ihappydoclib.parseinfo.moduleinfo
ModuleInfo
p2
(dp3
S'_namespaces'
p4
((dp5
S'Gnuplot'
p6
(ihappydoclib.parseinfo.classinfo
ClassInfo
p7
(dp8
g4
((dp9
(dp10
S'plot'
p11
(ihappydoclib.parseinfo.functioninfo
FunctionInfo
p12
(dp13
g4
((dp14
(dp15
tp16
sS'_exception_info'
p17
(dp18
sS'_parameter_names'
p19
(S'self'
p20
S'r'
S'c'
S'd'
S'title'
p21
S'key'
p22
tp23
sS'_parameter_info'
p24
(dp25
S'c'
(NNNtp26
sS'd'
(NNNtp27
sg21
(I1
S"''"
Ntp28
sg20
(NNNtp29
sS'r'
(NNNtp30
sg22
(I1
S"''"
Ntp31
ssS'_filename'
p32
S'box/gnuplot.py'
p33
sS'_docstring'
p34
S''
sS'_name'
p35
g11
sS'_parent'
p36
g7
sS'_comment_info'
p37
(dp38
sS'_configuration_values'
p39
(dp40
sS'_class_info'
p41
g14
sS'_function_info'
p42
g15
sS'_comments'
p43
S''
sbsS'execute'
p44
(ihappydoclib.parseinfo.functioninfo
FunctionInfo
p45
(dp46
g4
((dp47
(dp48
tp49
sg17
(dp50
sg19
(S'self'
p51
S'remove'
p52
tp53
sg24
(dp54
g51
(NNNtp55
sg52
(I1
S'True'
Ntp56
ssg32
g33
sg34
S''
sg35
g44
sg36
g7
sg37
g38
sg39
(dp57
sg41
g47
sg42
g48
sg43
S''
sbsS'__init__'
p58
(ihappydoclib.parseinfo.functioninfo
FunctionInfo
p59
(dp60
g4
((dp61
(dp62
tp63
sg17
(dp64
sg19
(S'self'
p65
S'gfile'
p66
S'ofile'
p67
S'r'
S'c'
S'title'
p68
S'xlabel'
p69
S'ylabel'
p70
tp71
sg24
(dp72
S'c'
(NNNtp73
sg68
(I1
S"''"
Ntp74
sg65
(NNNtp75
sS'r'
(NNNtp76
sg66
(NNNtp77
sg70
(I1
S"''"
Ntp78
sg69
(I1
S"''"
Ntp79
sg67
(NNNtp80
ssg32
g33
sg34
S''
sg35
g58
sg36
g7
sg37
g38
sg39
(dp81
sg41
g61
sg42
g62
sg43
S''
sbstp82
sg32
g33
sg34
S''
sS'_class_member_info'
p83
(lp84
sg35
g6
sg36
g2
sg37
g38
sS'_base_class_info'
p85
(lp86
sg39
(dp87
sg41
g9
sg42
g10
sg43
S''
sbs(dp88
tp89
sS'_import_info'
p90
(ihappydoclib.parseinfo.imports
ImportInfo
p91
(dp92
S'_named_imports'
p93
(dp94
sS'_straight_imports'
p95
(lp96
sbsg32
g33
sg34
S''
sg35
S'gnuplot'
p97
sg36
Nsg37
g38
sg39
(dp98
S'include_comments'
p99
I1
sS'cacheFilePrefix'
p100
S'.happydoc.'
p101
sS'useCache'
p102
I1
sS'docStringFormat'
p103
S'StructuredText'
p104
ssg41
g5
sg42
g88
sg43
S''
sbt.